target datalayout = "e-m:e-p270:32:32-p271:32:32-p272:64:64-i64:64-i128:128-f80:128-n8:16:32:64-S128"
target triple = "x86_64-pc-linux-gnu"

%struct.nstime_t = type { i64, i32 }
%struct._rpc_call_info_value = type { i32, i32, i32, i32, i32, i32, i32, i32, i32, i8, %struct.nstime_t, ptr }
%struct._packet_info = type { ptr, ptr, i32, i32, %struct.nstime_t, %struct.nstime_t, %struct.nstime_t, i8, ptr, ptr, ptr, ptr, %struct._address, %struct._address, %struct._address, %struct._address, %struct._address, %struct._address, i32, ptr, i8, [3 x i8], %struct.anon, i32, i32, i32, i32, ptr, i8, ptr, ptr, i16, i16, i32, i32, i16, i32, i32, ptr, ptr, ptr, i8, i8, i16, i16, i16, i32, i16, i16, ptr, ptr, ptr, ptr, ptr, i32, i32 }
%struct._address = type { i32, i32, ptr, ptr }
%struct.anon = type { i8, [3 x i8] }
%struct._frame_data = type <{ i32, i32, i32, i32, i32, [4 x i8], i64, ptr, ptr, ptr, i8, i16, [5 x i8], %struct.nstime_t, %struct.nstime_t, i32, i32 }>
%struct._nlm_msg_res_matched_data = type { i32, i32, %struct.nstime_t }

@hf_nlm_cookie = internal global i32 0, align 4
@hf_nlm_exclusive = internal global i32 0, align 4
@hf_nlm_lock_owner = internal global i32 0, align 4
@hf_nlm_lock_svid = internal global i32 0, align 4
@hf_nlm_lock_l_offset64 = internal global i32 0, align 4
@hf_nlm_lock_l_offset = internal global i32 0, align 4
@hf_nlm_lock_l_len64 = internal global i32 0, align 4
@hf_nlm_lock_l_len = internal global i32 0, align 4
@hf_nlm_test_stat = internal global i32 0, align 4
@hf_nlm_test_stat_stat = internal global i32 0, align 4
@hf_nlm_holder = internal global i32 0, align 4
@hf_nlm_request_in = internal global i32 0, align 4
@hf_nlm_time = internal global i32 0, align 4
@ett_nlm_lock = internal global i32 0, align 4
@nlm_match_msgres = internal global i8 0, align 1
@nlm_msg_res_matched = internal global ptr null, align 8
@nfs_fhandle_reqrep_matching = external global i8, align 1

; Function Attrs: null_pointer_is_valid sspstrong uwtable
define internal void @nlm_match_fhandle_reply(ptr noundef %0, ptr noundef %1) #0 {
  %3 = alloca ptr, align 8
  %4 = alloca ptr, align 8
  %5 = alloca ptr, align 8
  store ptr %0, ptr %3, align 8
  store ptr %1, ptr %4, align 8
  call void @llvm.lifetime.start.p0(i64 8, ptr %5) #8
  %6 = load ptr, ptr @nlm_msg_res_matched, align 8
  %7 = load ptr, ptr %3, align 8
  %8 = getelementptr inbounds nuw %struct._packet_info, ptr %7, i32 0, i32 3
  %9 = load i32, ptr %8, align 4
  %10 = zext i32 %9 to i64
  %11 = inttoptr i64 %10 to ptr
  %12 = call ptr @wmem_map_lookup(ptr noundef %6, ptr noundef %11)
  store ptr %12, ptr %5, align 8
  %13 = load ptr, ptr %5, align 8
  %14 = icmp ne ptr %13, null
  br i1 %14, label %15, label %26

15:                                               ; preds = %2
  %16 = load ptr, ptr %5, align 8
  %17 = getelementptr inbounds nuw %struct._nlm_msg_res_matched_data, ptr %16, i32 0, i32 1
  %18 = load i32, ptr %17, align 4
  %19 = icmp ne i32 %18, 0
  br i1 %19, label %20, label %26

20:                                               ; preds = %15
  %21 = load ptr, ptr %3, align 8
  %22 = load ptr, ptr %4, align 8
  %23 = load ptr, ptr %5, align 8
  %24 = getelementptr inbounds nuw %struct._nlm_msg_res_matched_data, ptr %23, i32 0, i32 0
  %25 = load i32, ptr %24, align 8
  call void @dissect_fhandle_hidden(ptr noundef %21, ptr noundef %22, i32 noundef %25)
  br label %26

26:                                               ; preds = %20, %15, %2
  call void @llvm.lifetime.end.p0(i64 8, ptr %5) #8
  ret void
}

; Function Attrs: null_pointer_is_valid sspstrong uwtable
define internal void @nlm_print_msgres_reply(ptr noundef %0, ptr noundef %1, ptr noundef %2) #0 {
  %4 = alloca ptr, align 8
  %5 = alloca ptr, align 8
  %6 = alloca ptr, align 8
  %7 = alloca ptr, align 8
  %8 = alloca %struct.nstime_t, align 8
  store ptr %0, ptr %4, align 8
  store ptr %1, ptr %5, align 8
  store ptr %2, ptr %6, align 8
  call void @llvm.lifetime.start.p0(i64 8, ptr %7) #8
  %9 = load ptr, ptr @nlm_msg_res_matched, align 8
  %10 = load ptr, ptr %4, align 8
  %11 = getelementptr inbounds nuw %struct._packet_info, ptr %10, i32 0, i32 3
  %12 = load i32, ptr %11, align 4
  %13 = zext i32 %12 to i64
  %14 = inttoptr i64 %13 to ptr
  %15 = call ptr @wmem_map_lookup(ptr noundef %9, ptr noundef %14)
  store ptr %15, ptr %7, align 8
  %16 = load ptr, ptr %7, align 8
  %17 = icmp ne ptr %16, null
  br i1 %17, label %18, label %34

18:                                               ; preds = %3
  call void @llvm.lifetime.start.p0(i64 16, ptr %8) #8
  %19 = load ptr, ptr %5, align 8
  %20 = load i32, ptr @hf_nlm_request_in, align 4
  %21 = load ptr, ptr %6, align 8
  %22 = load ptr, ptr %7, align 8
  %23 = getelementptr inbounds nuw %struct._nlm_msg_res_matched_data, ptr %22, i32 0, i32 0
  %24 = load i32, ptr %23, align 8
  %25 = call ptr @proto_tree_add_uint(ptr noundef %19, i32 noundef %20, ptr noundef %21, i32 noundef 0, i32 noundef 0, i32 noundef %24)
  %26 = load ptr, ptr %4, align 8
  %27 = getelementptr inbounds nuw %struct._packet_info, ptr %26, i32 0, i32 4
  %28 = load ptr, ptr %7, align 8
  %29 = getelementptr inbounds nuw %struct._nlm_msg_res_matched_data, ptr %28, i32 0, i32 2
  call void @nstime_delta(ptr noundef %8, ptr noundef %27, ptr noundef %29)
  %30 = load ptr, ptr %5, align 8
  %31 = load i32, ptr @hf_nlm_time, align 4
  %32 = load ptr, ptr %6, align 8
  %33 = call ptr @proto_tree_add_time(ptr noundef %30, i32 noundef %31, ptr noundef %32, i32 noundef 0, i32 noundef 0, ptr noundef %8)
  call void @llvm.lifetime.end.p0(i64 16, ptr %8) #8
  br label %34

34:                                               ; preds = %18, %3
  call void @llvm.lifetime.end.p0(i64 8, ptr %7) #8
  ret void
}

; Function Attrs: null_pointer_is_valid sspstrong uwtable
define internal i32 @dissect_nlm_test_res(ptr noundef %0, i32 noundef %1, ptr noundef %2, ptr noundef %3, i32 noundef %4, ptr noundef %5) #0 {
  %7 = alloca i32, align 4
  %8 = alloca ptr, align 8
  %9 = alloca i32, align 4
  %10 = alloca ptr, align 8
  %11 = alloca ptr, align 8
  %12 = alloca i32, align 4
  %13 = alloca ptr, align 8
  %14 = alloca ptr, align 8
  %15 = alloca ptr, align 8
  %16 = alloca i32, align 4
  store ptr %0, ptr %8, align 8
  store i32 %1, ptr %9, align 4
  store ptr %2, ptr %10, align 8
  store ptr %3, ptr %11, align 8
  store i32 %4, ptr %12, align 4
  store ptr %5, ptr %13, align 8
  call void @llvm.lifetime.start.p0(i64 8, ptr %14) #8
  store ptr null, ptr %14, align 8
  call void @llvm.lifetime.start.p0(i64 8, ptr %15) #8
  store ptr null, ptr %15, align 8
  %17 = load i8, ptr @nlm_match_msgres, align 1, !range !8, !noundef !9
  %18 = trunc i8 %17 to i1
  br i1 %18, label %19, label %50

19:                                               ; preds = %6
  %20 = load ptr, ptr %13, align 8
  %21 = getelementptr inbounds nuw %struct._rpc_call_info_value, ptr %20, i32 0, i32 4
  %22 = load i32, ptr %21, align 8
  %23 = icmp eq i32 %22, 11
  br i1 %23, label %24, label %49

24:                                               ; preds = %19
  %25 = load ptr, ptr %10, align 8
  %26 = getelementptr inbounds nuw %struct._packet_info, ptr %25, i32 0, i32 8
  %27 = load ptr, ptr %26, align 8
  %28 = getelementptr inbounds nuw %struct._frame_data, ptr %27, i32 0, i32 11
  %29 = load i16, ptr %28, align 1
  %30 = lshr i16 %29, 3
  %31 = and i16 %30, 1
  %32 = zext i16 %31 to i32
  %33 = icmp ne i32 %32, 0
  br i1 %33, label %38, label %34

34:                                               ; preds = %24
  %35 = load ptr, ptr %10, align 8
  %36 = load ptr, ptr %8, align 8
  %37 = load i32, ptr %9, align 4
  call void @nlm_register_unmatched_res(ptr noundef %35, ptr noundef %36, i32 noundef %37)
  br label %42

38:                                               ; preds = %24
  %39 = load ptr, ptr %10, align 8
  %40 = load ptr, ptr %11, align 8
  %41 = load ptr, ptr %8, align 8
  call void @nlm_print_msgres_reply(ptr noundef %39, ptr noundef %40, ptr noundef %41)
  br label %42

42:                                               ; preds = %38, %34
  %43 = load i8, ptr @nfs_fhandle_reqrep_matching, align 1, !range !8, !noundef !9
  %44 = trunc i8 %43 to i1
  br i1 %44, label %45, label %48

45:                                               ; preds = %42
  %46 = load ptr, ptr %10, align 8
  %47 = load ptr, ptr %11, align 8
  call void @nlm_match_fhandle_reply(ptr noundef %46, ptr noundef %47)
  br label %48

48:                                               ; preds = %45, %42
  br label %49

49:                                               ; preds = %48, %19
  br label %50

50:                                               ; preds = %49, %6
  %51 = load ptr, ptr %8, align 8
  %52 = load ptr, ptr %11, align 8
  %53 = load i32, ptr @hf_nlm_cookie, align 4
  %54 = load i32, ptr %9, align 4
  %55 = call i32 @dissect_rpc_data(ptr noundef %51, ptr noundef %52, i32 noundef %53, i32 noundef %54)
  store i32 %55, ptr %9, align 4
  %56 = load ptr, ptr %11, align 8
  %57 = icmp ne ptr %56, null
  br i1 %57, label %58, label %67

58:                                               ; preds = %50
  %59 = load ptr, ptr %11, align 8
  %60 = load i32, ptr @hf_nlm_test_stat, align 4
  %61 = load ptr, ptr %8, align 8
  %62 = load i32, ptr %9, align 4
  %63 = call ptr @proto_tree_add_item(ptr noundef %59, i32 noundef %60, ptr noundef %61, i32 noundef %62, i32 noundef -1, i32 noundef 0)
  store ptr %63, ptr %14, align 8
  %64 = load ptr, ptr %14, align 8
  %65 = load i32, ptr @ett_nlm_lock, align 4
  %66 = call ptr @proto_item_add_subtree(ptr noundef %64, i32 noundef %65)
  store ptr %66, ptr %15, align 8
  br label %67

67:                                               ; preds = %58, %50
  %68 = load ptr, ptr %8, align 8
  %69 = load ptr, ptr %15, align 8
  %70 = load i32, ptr @hf_nlm_test_stat_stat, align 4
  %71 = load i32, ptr %9, align 4
  %72 = call i32 @dissect_rpc_uint32(ptr noundef %68, ptr noundef %69, i32 noundef %70, i32 noundef %71)
  store i32 %72, ptr %9, align 4
  %73 = load ptr, ptr %8, align 8
  %74 = load i32, ptr %9, align 4
  %75 = call i32 @tvb_reported_length_remaining(ptr noundef %73, i32 noundef %74)
  %76 = icmp eq i32 %75, 0
  br i1 %76, label %77, label %79

77:                                               ; preds = %67
  %78 = load i32, ptr %9, align 4
  store i32 %78, ptr %7, align 4
  store i32 1, ptr %16, align 4
  br label %137

79:                                               ; preds = %67
  %80 = load ptr, ptr %11, align 8
  %81 = icmp ne ptr %80, null
  br i1 %81, label %82, label %95

82:                                               ; preds = %79
  %83 = load ptr, ptr %15, align 8
  %84 = load i32, ptr @hf_nlm_holder, align 4
  %85 = load ptr, ptr %8, align 8
  %86 = load i32, ptr %9, align 4
  %87 = call ptr @proto_tree_add_item(ptr noundef %83, i32 noundef %84, ptr noundef %85, i32 noundef %86, i32 noundef -1, i32 noundef 0)
  store ptr %87, ptr %14, align 8
  %88 = load ptr, ptr %14, align 8
  %89 = icmp ne ptr %88, null
  br i1 %89, label %90, label %94

90:                                               ; preds = %82
  %91 = load ptr, ptr %14, align 8
  %92 = load i32, ptr @ett_nlm_lock, align 4
  %93 = call ptr @proto_item_add_subtree(ptr noundef %91, i32 noundef %92)
  store ptr %93, ptr %15, align 8
  br label %94

94:                                               ; preds = %90, %82
  br label %95

95:                                               ; preds = %94, %79
  %96 = load ptr, ptr %8, align 8
  %97 = load ptr, ptr %15, align 8
  %98 = load i32, ptr @hf_nlm_exclusive, align 4
  %99 = load i32, ptr %9, align 4
  %100 = call i32 @dissect_rpc_bool(ptr noundef %96, ptr noundef %97, i32 noundef %98, i32 noundef %99)
  store i32 %100, ptr %9, align 4
  %101 = load ptr, ptr %8, align 8
  %102 = load ptr, ptr %15, align 8
  %103 = load i32, ptr @hf_nlm_lock_svid, align 4
  %104 = load i32, ptr %9, align 4
  %105 = call i32 @dissect_rpc_uint32(ptr noundef %101, ptr noundef %102, i32 noundef %103, i32 noundef %104)
  store i32 %105, ptr %9, align 4
  %106 = load ptr, ptr %8, align 8
  %107 = load ptr, ptr %15, align 8
  %108 = load i32, ptr @hf_nlm_lock_owner, align 4
  %109 = load i32, ptr %9, align 4
  %110 = call i32 @dissect_rpc_data(ptr noundef %106, ptr noundef %107, i32 noundef %108, i32 noundef %109)
  store i32 %110, ptr %9, align 4
  %111 = load i32, ptr %12, align 4
  %112 = icmp eq i32 %111, 4
  br i1 %112, label %113, label %124

113:                                              ; preds = %95
  %114 = load ptr, ptr %8, align 8
  %115 = load ptr, ptr %15, align 8
  %116 = load i32, ptr @hf_nlm_lock_l_offset64, align 4
  %117 = load i32, ptr %9, align 4
  %118 = call i32 @dissect_rpc_uint64(ptr noundef %114, ptr noundef %115, i32 noundef %116, i32 noundef %117)
  store i32 %118, ptr %9, align 4
  %119 = load ptr, ptr %8, align 8
  %120 = load ptr, ptr %15, align 8
  %121 = load i32, ptr @hf_nlm_lock_l_len64, align 4
  %122 = load i32, ptr %9, align 4
  %123 = call i32 @dissect_rpc_uint64(ptr noundef %119, ptr noundef %120, i32 noundef %121, i32 noundef %122)
  store i32 %123, ptr %9, align 4
  br label %135

124:                                              ; preds = %95
  %125 = load ptr, ptr %8, align 8
  %126 = load ptr, ptr %15, align 8
  %127 = load i32, ptr @hf_nlm_lock_l_offset, align 4
  %128 = load i32, ptr %9, align 4
  %129 = call i32 @dissect_rpc_uint32(ptr noundef %125, ptr noundef %126, i32 noundef %127, i32 noundef %128)
  store i32 %129, ptr %9, align 4
  %130 = load ptr, ptr %8, align 8
  %131 = load ptr, ptr %15, align 8
  %132 = load i32, ptr @hf_nlm_lock_l_len, align 4
  %133 = load i32, ptr %9, align 4
  %134 = call i32 @dissect_rpc_uint32(ptr noundef %130, ptr noundef %131, i32 noundef %132, i32 noundef %133)
  store i32 %134, ptr %9, align 4
  br label %135

135:                                              ; preds = %124, %113
  %136 = load i32, ptr %9, align 4
  store i32 %136, ptr %7, align 4
  store i32 1, ptr %16, align 4
  br label %137

137:                                              ; preds = %135, %77
  call void @llvm.lifetime.end.p0(i64 8, ptr %15) #8
  call void @llvm.lifetime.end.p0(i64 8, ptr %14) #8
  %138 = load i32, ptr %7, align 4
  ret i32 %138
}