; Function Attrs: null_pointer_is_valid sspstrong uwtable
define internal fastcc i32 @dissect_nlm_test_res(ptr noundef %0, ptr noundef %1, ptr noundef %2, i32 noundef range(i32 1, 5) %3, ptr noundef readonly captures(none) %4) unnamed_addr #0 {
  %6 = alloca %struct.nstime_t, align 8
  %7 = load i8, ptr @nlm_match_msgres, align 1, !range !8, !noundef !9
  %8 = trunc nuw i8 %7 to i1
  br i1 %8, label %9, label %nlm_match_fhandle_reply.exit

9:                                                ; preds = %5
  %10 = getelementptr inbounds nuw i8, ptr %4, i64 16
  %11 = load i32, ptr %10, align 8
  %12 = icmp eq i32 %11, 11
  br i1 %12, label %13, label %nlm_match_fhandle_reply.exit

13:                                               ; preds = %9
  %14 = getelementptr inbounds nuw i8, ptr %1, i64 80
  %15 = load ptr, ptr %14, align 8
  %16 = getelementptr inbounds nuw i8, ptr %15, i64 57
  %17 = load i16, ptr %16, align 1
  %18 = and i16 %17, 8
  %.not = icmp eq i16 %18, 0
  br i1 %.not, label %19, label %20

19:                                               ; preds = %13
  tail call fastcc void @nlm_register_unmatched_res(ptr noundef %1, ptr noundef %0)
  br label %nlm_print_msgres_reply.exit

20:                                               ; preds = %13
  %21 = load ptr, ptr @nlm_msg_res_matched, align 8
  %22 = getelementptr inbounds nuw i8, ptr %1, i64 20
  %23 = load i32, ptr %22, align 4
  %24 = zext i32 %23 to i64
  %25 = inttoptr i64 %24 to ptr
  %26 = tail call ptr @wmem_map_lookup(ptr noundef %21, ptr noundef %25)
  %.not.i = icmp eq ptr %26, null
  br i1 %.not.i, label %nlm_print_msgres_reply.exit, label %27

27:                                               ; preds = %20
  call void @llvm.lifetime.start.p0(i64 16, ptr nonnull %6) #10
  %28 = load i32, ptr @hf_nlm_request_in, align 4
  %29 = load i32, ptr %26, align 8
  %30 = tail call ptr @proto_tree_add_uint(ptr noundef %2, i32 noundef %28, ptr noundef %0, i32 noundef 0, i32 noundef 0, i32 noundef %29)
  %31 = getelementptr inbounds nuw i8, ptr %1, i64 24
  %32 = getelementptr inbounds nuw i8, ptr %26, i64 8
  call void @nstime_delta(ptr noundef nonnull %6, ptr noundef nonnull %31, ptr noundef nonnull %32)
  %33 = load i32, ptr @hf_nlm_time, align 4
  %34 = call ptr @proto_tree_add_time(ptr noundef %2, i32 noundef %33, ptr noundef %0, i32 noundef 0, i32 noundef 0, ptr noundef nonnull %6)
  call void @llvm.lifetime.end.p0(i64 16, ptr nonnull %6) #10
  br label %nlm_print_msgres_reply.exit

nlm_print_msgres_reply.exit:                      ; preds = %27, %20, %19
  %35 = load i8, ptr @nfs_fhandle_reqrep_matching, align 1, !range !8, !noundef !9
  %36 = trunc nuw i8 %35 to i1
  br i1 %36, label %37, label %nlm_match_fhandle_reply.exit

37:                                               ; preds = %nlm_print_msgres_reply.exit
  %38 = load ptr, ptr @nlm_msg_res_matched, align 8
  %39 = getelementptr inbounds nuw i8, ptr %1, i64 20
  %40 = load i32, ptr %39, align 4
  %41 = zext i32 %40 to i64
  %42 = inttoptr i64 %41 to ptr
  %43 = call ptr @wmem_map_lookup(ptr noundef %38, ptr noundef %42)
  %.not.i59 = icmp eq ptr %43, null
  br i1 %.not.i59, label %nlm_match_fhandle_reply.exit, label %44

44:                                               ; preds = %37
  %45 = getelementptr inbounds nuw i8, ptr %43, i64 4
  %46 = load i32, ptr %45, align 4
  %.not6.i = icmp eq i32 %46, 0
  br i1 %.not6.i, label %nlm_match_fhandle_reply.exit, label %47

47:                                               ; preds = %44
  %48 = load i32, ptr %43, align 8
  call void @dissect_fhandle_hidden(ptr noundef %1, ptr noundef %2, i32 noundef %48)
  br label %nlm_match_fhandle_reply.exit

nlm_match_fhandle_reply.exit:                     ; preds = %47, %44, %37, %9, %nlm_print_msgres_reply.exit, %5
  %49 = load i32, ptr @hf_nlm_cookie, align 4
  %50 = call i32 @dissect_rpc_data(ptr noundef %0, ptr noundef %2, i32 noundef %49, i32 noundef 0)
  %.not57 = icmp eq ptr %2, null
  br i1 %.not57, label %56, label %51

51:                                               ; preds = %nlm_match_fhandle_reply.exit
  %52 = load i32, ptr @hf_nlm_test_stat, align 4
  %53 = call ptr @proto_tree_add_item(ptr noundef nonnull %2, i32 noundef %52, ptr noundef %0, i32 noundef %50, i32 noundef -1, i32 noundef 0)
  %54 = load i32, ptr @ett_nlm_lock, align 4
  %55 = call ptr @proto_item_add_subtree(ptr noundef %53, i32 noundef %54)
  br label %56

56:                                               ; preds = %51, %nlm_match_fhandle_reply.exit
  %.0 = phi ptr [ %55, %51 ], [ null, %nlm_match_fhandle_reply.exit ]
  %57 = load i32, ptr @hf_nlm_test_stat_stat, align 4
  %58 = call i32 @dissect_rpc_uint32(ptr noundef %0, ptr noundef %.0, i32 noundef %57, i32 noundef %50)
  %59 = call i32 @tvb_reported_length_remaining(ptr noundef %0, i32 noundef %58)
  %60 = icmp eq i32 %59, 0
  br i1 %60, label %86, label %61

61:                                               ; preds = %56
  br i1 %.not57, label %68, label %62

62:                                               ; preds = %61
  %63 = load i32, ptr @hf_nlm_holder, align 4
  %64 = call ptr @proto_tree_add_item(ptr noundef %.0, i32 noundef %63, ptr noundef %0, i32 noundef %58, i32 noundef -1, i32 noundef 0)
  %.not58 = icmp eq ptr %64, null
  br i1 %.not58, label %68, label %65

65:                                               ; preds = %62
  %66 = load i32, ptr @ett_nlm_lock, align 4
  %67 = call ptr @proto_item_add_subtree(ptr noundef nonnull %64, i32 noundef %66)
  br label %68

68:                                               ; preds = %62, %65, %61
  %.1 = phi ptr [ %67, %65 ], [ %.0, %62 ], [ %.0, %61 ]
  %69 = load i32, ptr @hf_nlm_exclusive, align 4
  %70 = call i32 @dissect_rpc_bool(ptr noundef %0, ptr noundef %.1, i32 noundef %69, i32 noundef %58)
  %71 = load i32, ptr @hf_nlm_lock_svid, align 4
  %72 = call i32 @dissect_rpc_uint32(ptr noundef %0, ptr noundef %.1, i32 noundef %71, i32 noundef %70)
  %73 = load i32, ptr @hf_nlm_lock_owner, align 4
  %74 = call i32 @dissect_rpc_data(ptr noundef %0, ptr noundef %.1, i32 noundef %73, i32 noundef %72)
  %75 = icmp eq i32 %3, 4
  br i1 %75, label %76, label %81

76:                                               ; preds = %68
  %77 = load i32, ptr @hf_nlm_lock_l_offset64, align 4
  %78 = call i32 @dissect_rpc_uint64(ptr noundef %0, ptr noundef %.1, i32 noundef %77, i32 noundef %74)
  %79 = load i32, ptr @hf_nlm_lock_l_len64, align 4
  %80 = call i32 @dissect_rpc_uint64(ptr noundef %0, ptr noundef %.1, i32 noundef %79, i32 noundef %78)
  br label %86

81:                                               ; preds = %68
  %82 = load i32, ptr @hf_nlm_lock_l_offset, align 4
  %83 = call i32 @dissect_rpc_uint32(ptr noundef %0, ptr noundef %.1, i32 noundef %82, i32 noundef %74)
  %84 = load i32, ptr @hf_nlm_lock_l_len, align 4
  %85 = call i32 @dissect_rpc_uint32(ptr noundef %0, ptr noundef %.1, i32 noundef %84, i32 noundef %83)
  br label %86

86:                                               ; preds = %76, %81, %56
  %.053 = phi i32 [ %58, %56 ], [ %80, %76 ], [ %85, %81 ]
  ret i32 %.053
}